Archive member included because of file (symbol)

c:/programs/winavr-20100110/bin/../lib/gcc/avr/4.3.3/avr4\libgcc.a(_exit.o)
                              c:/programs/winavr-20100110/bin/../lib/gcc/avr/4.3.3/../../../../avr/lib/avr4/crtm8.o (exit)
c:/programs/winavr-20100110/bin/../lib/gcc/avr/4.3.3/avr4\libgcc.a(_copy_data.o)
                              obj\Release\src\funcs.o (__do_copy_data)
c:/programs/winavr-20100110/bin/../lib/gcc/avr/4.3.3/avr4\libgcc.a(_clear_bss.o)
                              obj\Release\src\funcs.o (__do_clear_bss)

Allocating common symbols
Common symbol       size              file

g_ioBuffer          0x20              obj\Release\src\cpu_io.o
usbTxBuf            0xb               obj\Release\usbdrv\usbdrv.o
g_ramParams         0x80              obj\Release\src\funcs.o
g_eepromParams      0x80              obj\Release\src\funcs.o
usbDeviceAddr       0x1               obj\Release\usbdrv\usbdrv.o
usbRxToken          0x1               obj\Release\usbdrv\usbdrv.o
usbInputBufOffset   0x1               obj\Release\usbdrv\usbdrv.o
usbMsgPtr           0x2               obj\Release\usbdrv\usbdrv.o
usbRxLen            0x1               obj\Release\usbdrv\usbdrv.o
usbNewDeviceAddr    0x1               obj\Release\usbdrv\usbdrv.o
usbCurrentTok       0x1               obj\Release\usbdrv\usbdrv.o
usbConfiguration    0x1               obj\Release\usbdrv\usbdrv.o
usbRxBuf            0x16              obj\Release\usbdrv\usbdrv.o

Memory Configuration

Name             Origin             Length             Attributes
text             0x00000000         0x00002000         xr
data             0x00800060         0x0000ffa0         rw !x
eeprom           0x00810000         0x00010000         rw !x
fuse             0x00820000         0x00000400         rw !x
lock             0x00830000         0x00000400         rw !x
signature        0x00840000         0x00000400         rw !x
*default*        0x00000000         0xffffffff

Linker script and memory map

LOAD c:/programs/winavr-20100110/bin/../lib/gcc/avr/4.3.3/../../../../avr/lib/avr4/crtm8.o
LOAD obj\Release\src\dbg.o
LOAD obj\Release\src\funcs.o
LOAD obj\Release\src\main.o
LOAD obj\Release\usbdrv\oddebug.o
LOAD obj\Release\usbdrv\usbdrv.o
LOAD obj\Release\usbdrv\usbdrvasm.o
LOAD obj\Release\src\cpu_io.o
LOAD c:/programs/winavr-20100110/bin/../lib/gcc/avr/4.3.3/avr4\libgcc.a
LOAD c:/programs/winavr-20100110/bin/../lib/gcc/avr/4.3.3/../../../../avr/lib/avr4\libm.a
LOAD c:/programs/winavr-20100110/bin/../lib/gcc/avr/4.3.3/avr4\libgcc.a
LOAD c:/programs/winavr-20100110/bin/../lib/gcc/avr/4.3.3/../../../../avr/lib/avr4\libc.a
LOAD c:/programs/winavr-20100110/bin/../lib/gcc/avr/4.3.3/avr4\libgcc.a

.hash
 *(.hash)

.dynsym
 *(.dynsym)

.dynstr
 *(.dynstr)

.gnu.version
 *(.gnu.version)

.gnu.version_d
 *(.gnu.version_d)

.gnu.version_r
 *(.gnu.version_r)

.rel.init
 *(.rel.init)

.rela.init
 *(.rela.init)

.rel.text
 *(.rel.text)
 *(.rel.text.*)
 *(.rel.gnu.linkonce.t*)

.rela.text
 *(.rela.text)
 *(.rela.text.*)
 *(.rela.gnu.linkonce.t*)

.rel.fini
 *(.rel.fini)

.rela.fini
 *(.rela.fini)

.rel.rodata
 *(.rel.rodata)
 *(.rel.rodata.*)
 *(.rel.gnu.linkonce.r*)

.rela.rodata
 *(.rela.rodata)
 *(.rela.rodata.*)
 *(.rela.gnu.linkonce.r*)

.rel.data
 *(.rel.data)
 *(.rel.data.*)
 *(.rel.gnu.linkonce.d*)

.rela.data
 *(.rela.data)
 *(.rela.data.*)
 *(.rela.gnu.linkonce.d*)

.rel.ctors
 *(.rel.ctors)

.rela.ctors
 *(.rela.ctors)

.rel.dtors
 *(.rel.dtors)

.rela.dtors
 *(.rela.dtors)

.rel.got
 *(.rel.got)

.rela.got
 *(.rela.got)

.rel.bss
 *(.rel.bss)

.rela.bss
 *(.rela.bss)

.rel.plt
 *(.rel.plt)

.rela.plt
 *(.rela.plt)

.text           0x00000000      0x8b4
 *(.vectors)
 .vectors       0x00000000       0x26 c:/programs/winavr-20100110/bin/../lib/gcc/avr/4.3.3/../../../../avr/lib/avr4/crtm8.o
                0x00000000                __vectors
                0x00000000                __vector_default
 *(.vectors)
 *(.progmem.gcc*)
 *(.progmem*)
 .progmem.data  0x00000026       0x66 obj\Release\usbdrv\usbdrv.o
                0x00000068                usbDescriptorDevice
                0x00000026                usbDescriptorString0
                0x0000007a                usbDescriptorConfiguration
                0x0000002a                usbDescriptorStringVendor
                0x00000048                usbDescriptorStringDevice
                0x0000008c                . = ALIGN (0x2)
                0x0000008c                __trampolines_start = .
 *(.trampolines)
 .trampolines   0x0000008c        0x0 linker stubs
 *(.trampolines*)
                0x0000008c                __trampolines_end = .
 *(.jumptables)
 *(.jumptables*)
 *(.lowtext)
 *(.lowtext*)
                0x0000008c                __ctors_start = .
 *(.ctors)
                0x0000008c                __ctors_end = .
                0x0000008c                __dtors_start = .
 *(.dtors)
                0x0000008c                __dtors_end = .
 SORT(*)(.ctors)
 SORT(*)(.dtors)
 *(.init0)
 .init0         0x0000008c        0x0 c:/programs/winavr-20100110/bin/../lib/gcc/avr/4.3.3/../../../../avr/lib/avr4/crtm8.o
                0x0000008c                __init
 *(.init0)
 *(.init1)
 *(.init1)
 *(.init2)
 .init2         0x0000008c        0xc c:/programs/winavr-20100110/bin/../lib/gcc/avr/4.3.3/../../../../avr/lib/avr4/crtm8.o
 *(.init2)
 *(.init3)
 *(.init3)
 *(.init4)
 .init4         0x00000098       0x16 c:/programs/winavr-20100110/bin/../lib/gcc/avr/4.3.3/avr4\libgcc.a(_copy_data.o)
                0x00000098                __do_copy_data
 .init4         0x000000ae       0x10 c:/programs/winavr-20100110/bin/../lib/gcc/avr/4.3.3/avr4\libgcc.a(_clear_bss.o)
                0x000000ae                __do_clear_bss
 *(.init4)
 *(.init5)
 *(.init5)
 *(.init6)
 *(.init6)
 *(.init7)
 *(.init7)
 *(.init8)
 *(.init8)
 *(.init9)
 .init9         0x000000be        0x4 c:/programs/winavr-20100110/bin/../lib/gcc/avr/4.3.3/../../../../avr/lib/avr4/crtm8.o
 *(.init9)
 *(.text)
 .text          0x000000c2        0x2 c:/programs/winavr-20100110/bin/../lib/gcc/avr/4.3.3/../../../../avr/lib/avr4/crtm8.o
                0x000000c2                __vector_12
                0x000000c2                __bad_interrupt
                0x000000c2                __vector_6
                0x000000c2                __vector_3
                0x000000c2                __vector_11
                0x000000c2                __vector_13
                0x000000c2                __vector_17
                0x000000c2                __vector_7
                0x000000c2                __vector_5
                0x000000c2                __vector_4
                0x000000c2                __vector_9
                0x000000c2                __vector_2
                0x000000c2                __vector_15
                0x000000c2                __vector_8
                0x000000c2                __vector_14
                0x000000c2                __vector_10
                0x000000c2                __vector_16
                0x000000c2                __vector_18
 .text          0x000000c4       0x4e obj\Release\src\dbg.o
                0x000000c4                initLeds
                0x000000fe                blinkLed1
                0x000000e4                setLed1
                0x000000da                setLed0
                0x000000ee                blinkLed0
                0x000000d0                setLeds
 .text          0x00000112      0x150 obj\Release\src\funcs.o
                0x00000112                invoke
 .text          0x00000262       0x74 obj\Release\src\main.o
                0x00000262                usbFunctionSetup
                0x0000029a                main
                0x0000028e                usbFunctionRead
                0x00000288                usbFunctionWrite
 .text          0x000002d6        0x0 obj\Release\usbdrv\oddebug.o
 .text          0x000002d6      0x238 obj\Release\usbdrv\usbdrv.o
                0x000002e4                usbPoll
                0x000002d6                usbInit
 .text          0x0000050e      0x28c obj\Release\usbdrv\usbdrvasm.o
                0x00000540                __vector_1
                0x0000050e                usbCrc16
                0x00000538                usbCrc16Append
 .text          0x0000079a      0x116 obj\Release\src\cpu_io.o
                0x0000079a                cpuIoInit
                0x000007e0                cpuIoReset
                0x0000082a                cpuIoPush
                0x000007a4                cpuIoPoll
                0x000007f6                cpuIoPop
 .text          0x000008b0        0x0 c:/programs/winavr-20100110/bin/../lib/gcc/avr/4.3.3/avr4\libgcc.a(_exit.o)
 .text          0x000008b0        0x0 c:/programs/winavr-20100110/bin/../lib/gcc/avr/4.3.3/avr4\libgcc.a(_copy_data.o)
 .text          0x000008b0        0x0 c:/programs/winavr-20100110/bin/../lib/gcc/avr/4.3.3/avr4\libgcc.a(_clear_bss.o)
                0x000008b0                . = ALIGN (0x2)
 *(.text.*)
 .text.libgcc   0x000008b0        0x0 c:/programs/winavr-20100110/bin/../lib/gcc/avr/4.3.3/avr4\libgcc.a(_exit.o)
 .text.libgcc   0x000008b0        0x0 c:/programs/winavr-20100110/bin/../lib/gcc/avr/4.3.3/avr4\libgcc.a(_copy_data.o)
 .text.libgcc   0x000008b0        0x0 c:/programs/winavr-20100110/bin/../lib/gcc/avr/4.3.3/avr4\libgcc.a(_clear_bss.o)
                0x000008b0                . = ALIGN (0x2)
 *(.fini9)
 .fini9         0x000008b0        0x0 c:/programs/winavr-20100110/bin/../lib/gcc/avr/4.3.3/avr4\libgcc.a(_exit.o)
                0x000008b0                exit
                0x000008b0                _exit
 *(.fini9)
 *(.fini8)
 *(.fini8)
 *(.fini7)
 *(.fini7)
 *(.fini6)
 *(.fini6)
 *(.fini5)
 *(.fini5)
 *(.fini4)
 *(.fini4)
 *(.fini3)
 *(.fini3)
 *(.fini2)
 *(.fini2)
 *(.fini1)
 *(.fini1)
 *(.fini0)
 .fini0         0x000008b0        0x4 c:/programs/winavr-20100110/bin/../lib/gcc/avr/4.3.3/avr4\libgcc.a(_exit.o)
 *(.fini0)
                0x000008b4                _etext = .

.data           0x00800060        0xe load address 0x000008b4
                0x00800060                PROVIDE (__data_start, .)
 *(.data)
 .data          0x00800060        0x0 c:/programs/winavr-20100110/bin/../lib/gcc/avr/4.3.3/../../../../avr/lib/avr4/crtm8.o
 .data          0x00800060        0x0 obj\Release\src\dbg.o
 .data          0x00800060        0xb obj\Release\src\funcs.o
 .data          0x0080006b        0x0 obj\Release\src\main.o
 .data          0x0080006b        0x0 obj\Release\usbdrv\oddebug.o
 .data          0x0080006b        0x2 obj\Release\usbdrv\usbdrv.o
                0x0080006b                usbTxLen
 .data          0x0080006d        0x0 obj\Release\usbdrv\usbdrvasm.o
 .data          0x0080006d        0x0 obj\Release\src\cpu_io.o
 .data          0x0080006d        0x0 c:/programs/winavr-20100110/bin/../lib/gcc/avr/4.3.3/avr4\libgcc.a(_exit.o)
 .data          0x0080006d        0x0 c:/programs/winavr-20100110/bin/../lib/gcc/avr/4.3.3/avr4\libgcc.a(_copy_data.o)
 .data          0x0080006d        0x0 c:/programs/winavr-20100110/bin/../lib/gcc/avr/4.3.3/avr4\libgcc.a(_clear_bss.o)
 *(.data*)
 *(.rodata)
 *(.rodata*)
 *(.gnu.linkonce.d*)
                0x0080006e                . = ALIGN (0x2)
 *fill*         0x0080006d        0x1 00
                0x0080006e                _edata = .
                0x0080006e                PROVIDE (__data_end, .)

.bss            0x0080006e      0x158
                0x0080006e                PROVIDE (__bss_start, .)
 *(.bss)
 .bss           0x0080006e        0x0 c:/programs/winavr-20100110/bin/../lib/gcc/avr/4.3.3/../../../../avr/lib/avr4/crtm8.o
 .bss           0x0080006e        0x0 obj\Release\src\dbg.o
 .bss           0x0080006e        0x0 obj\Release\src\funcs.o
 .bss           0x0080006e        0x8 obj\Release\src\main.o
 .bss           0x00800076        0x0 obj\Release\usbdrv\oddebug.o
 .bss           0x00800076        0x1 obj\Release\usbdrv\usbdrv.o
 .bss           0x00800077        0x0 obj\Release\usbdrv\usbdrvasm.o
 .bss           0x00800077        0x5 obj\Release\src\cpu_io.o
                0x0080007a                g_ioWatchdog
                0x00800077                g_ioExpected
                0x00800078                g_ioWrPtr
                0x00800079                g_ioRdPtr
 .bss           0x0080007c        0x0 c:/programs/winavr-20100110/bin/../lib/gcc/avr/4.3.3/avr4\libgcc.a(_exit.o)
 .bss           0x0080007c        0x0 c:/programs/winavr-20100110/bin/../lib/gcc/avr/4.3.3/avr4\libgcc.a(_copy_data.o)
 .bss           0x0080007c        0x0 c:/programs/winavr-20100110/bin/../lib/gcc/avr/4.3.3/avr4\libgcc.a(_clear_bss.o)
 *(.bss*)
 *(COMMON)
 COMMON         0x0080007c      0x100 obj\Release\src\funcs.o
                0x0080007c                g_ramParams
                0x008000fc                g_eepromParams
 COMMON         0x0080017c       0x2a obj\Release\usbdrv\usbdrv.o
                0x0080017c                usbTxBuf
                0x00800187                usbDeviceAddr
                0x00800188                usbRxToken
                0x00800189                usbInputBufOffset
                0x0080018a                usbMsgPtr
                0x0080018c                usbRxLen
                0x0080018d                usbNewDeviceAddr
                0x0080018e                usbCurrentTok
                0x0080018f                usbConfiguration
                0x00800190                usbRxBuf
 COMMON         0x008001a6       0x20 obj\Release\src\cpu_io.o
                0x008001a6                g_ioBuffer
                0x008001c6                PROVIDE (__bss_end, .)
                0x000008b4                __data_load_start = LOADADDR (.data)
                0x000008c2                __data_load_end = (__data_load_start + SIZEOF (.data))

.noinit         0x008001c6        0x0
                0x008001c6                PROVIDE (__noinit_start, .)
 *(.noinit*)
                0x008001c6                PROVIDE (__noinit_end, .)
                0x008001c6                _end = .
                0x008001c6                PROVIDE (__heap_start, .)

.eeprom         0x00810000        0x0
 *(.eeprom*)
                0x00810000                __eeprom_end = .

.fuse
 *(.fuse)
 *(.lfuse)
 *(.hfuse)
 *(.efuse)

.lock
 *(.lock*)

.signature
 *(.signature*)

.stab
 *(.stab)

.stabstr
 *(.stabstr)

.stab.excl
 *(.stab.excl)

.stab.exclstr
 *(.stab.exclstr)

.stab.index
 *(.stab.index)

.stab.indexstr
 *(.stab.indexstr)

.comment
 *(.comment)

.debug
 *(.debug)

.line
 *(.line)

.debug_srcinfo
 *(.debug_srcinfo)

.debug_sfnames
 *(.debug_sfnames)

.debug_aranges
 *(.debug_aranges)

.debug_pubnames
 *(.debug_pubnames)

.debug_info
 *(.debug_info)
 *(.gnu.linkonce.wi.*)

.debug_abbrev
 *(.debug_abbrev)

.debug_line
 *(.debug_line)

.debug_frame
 *(.debug_frame)

.debug_str
 *(.debug_str)

.debug_loc
 *(.debug_loc)

.debug_macinfo
 *(.debug_macinfo)
OUTPUT(bin\Release\atmega8.elf elf32-avr)
LOAD linker stubs

Cross Reference Table

Symbol                                            File
__bad_interrupt                                   c:/programs/winavr-20100110/bin/../lib/gcc/avr/4.3.3/../../../../avr/lib/avr4/crtm8.o
__bss_end                                         c:/programs/winavr-20100110/bin/../lib/gcc/avr/4.3.3/avr4\libgcc.a(_clear_bss.o)
__bss_start                                       c:/programs/winavr-20100110/bin/../lib/gcc/avr/4.3.3/avr4\libgcc.a(_clear_bss.o)
__data_end                                        c:/programs/winavr-20100110/bin/../lib/gcc/avr/4.3.3/avr4\libgcc.a(_copy_data.o)
__data_load_start                                 c:/programs/winavr-20100110/bin/../lib/gcc/avr/4.3.3/avr4\libgcc.a(_copy_data.o)
__data_start                                      c:/programs/winavr-20100110/bin/../lib/gcc/avr/4.3.3/avr4\libgcc.a(_copy_data.o)
__do_clear_bss                                    c:/programs/winavr-20100110/bin/../lib/gcc/avr/4.3.3/avr4\libgcc.a(_clear_bss.o)
                                                  obj\Release\src\cpu_io.o
                                                  obj\Release\usbdrv\usbdrv.o
                                                  obj\Release\src\main.o
                                                  obj\Release\src\funcs.o
__do_copy_data                                    c:/programs/winavr-20100110/bin/../lib/gcc/avr/4.3.3/avr4\libgcc.a(_copy_data.o)
                                                  obj\Release\usbdrv\usbdrv.o
                                                  obj\Release\src\funcs.o
__heap_end                                        c:/programs/winavr-20100110/bin/../lib/gcc/avr/4.3.3/../../../../avr/lib/avr4/crtm8.o
__init                                            c:/programs/winavr-20100110/bin/../lib/gcc/avr/4.3.3/../../../../avr/lib/avr4/crtm8.o
__stack                                           c:/programs/winavr-20100110/bin/../lib/gcc/avr/4.3.3/../../../../avr/lib/avr4/crtm8.o
__vector_1                                        obj\Release\usbdrv\usbdrvasm.o
                                                  c:/programs/winavr-20100110/bin/../lib/gcc/avr/4.3.3/../../../../avr/lib/avr4/crtm8.o
__vector_10                                       c:/programs/winavr-20100110/bin/../lib/gcc/avr/4.3.3/../../../../avr/lib/avr4/crtm8.o
__vector_11                                       c:/programs/winavr-20100110/bin/../lib/gcc/avr/4.3.3/../../../../avr/lib/avr4/crtm8.o
__vector_12                                       c:/programs/winavr-20100110/bin/../lib/gcc/avr/4.3.3/../../../../avr/lib/avr4/crtm8.o
__vector_13                                       c:/programs/winavr-20100110/bin/../lib/gcc/avr/4.3.3/../../../../avr/lib/avr4/crtm8.o
__vector_14                                       c:/programs/winavr-20100110/bin/../lib/gcc/avr/4.3.3/../../../../avr/lib/avr4/crtm8.o
__vector_15                                       c:/programs/winavr-20100110/bin/../lib/gcc/avr/4.3.3/../../../../avr/lib/avr4/crtm8.o
__vector_16                                       c:/programs/winavr-20100110/bin/../lib/gcc/avr/4.3.3/../../../../avr/lib/avr4/crtm8.o
__vector_17                                       c:/programs/winavr-20100110/bin/../lib/gcc/avr/4.3.3/../../../../avr/lib/avr4/crtm8.o
__vector_18                                       c:/programs/winavr-20100110/bin/../lib/gcc/avr/4.3.3/../../../../avr/lib/avr4/crtm8.o
__vector_2                                        c:/programs/winavr-20100110/bin/../lib/gcc/avr/4.3.3/../../../../avr/lib/avr4/crtm8.o
__vector_3                                        c:/programs/winavr-20100110/bin/../lib/gcc/avr/4.3.3/../../../../avr/lib/avr4/crtm8.o
__vector_4                                        c:/programs/winavr-20100110/bin/../lib/gcc/avr/4.3.3/../../../../avr/lib/avr4/crtm8.o
__vector_5                                        c:/programs/winavr-20100110/bin/../lib/gcc/avr/4.3.3/../../../../avr/lib/avr4/crtm8.o
__vector_6                                        c:/programs/winavr-20100110/bin/../lib/gcc/avr/4.3.3/../../../../avr/lib/avr4/crtm8.o
__vector_7                                        c:/programs/winavr-20100110/bin/../lib/gcc/avr/4.3.3/../../../../avr/lib/avr4/crtm8.o
__vector_8                                        c:/programs/winavr-20100110/bin/../lib/gcc/avr/4.3.3/../../../../avr/lib/avr4/crtm8.o
__vector_9                                        c:/programs/winavr-20100110/bin/../lib/gcc/avr/4.3.3/../../../../avr/lib/avr4/crtm8.o
__vector_default                                  c:/programs/winavr-20100110/bin/../lib/gcc/avr/4.3.3/../../../../avr/lib/avr4/crtm8.o
__vectors                                         c:/programs/winavr-20100110/bin/../lib/gcc/avr/4.3.3/../../../../avr/lib/avr4/crtm8.o
_exit                                             c:/programs/winavr-20100110/bin/../lib/gcc/avr/4.3.3/avr4\libgcc.a(_exit.o)
blinkLed0                                         obj\Release\src\dbg.o
                                                  obj\Release\src\funcs.o
blinkLed1                                         obj\Release\src\dbg.o
                                                  obj\Release\src\funcs.o
cpuIoInit                                         obj\Release\src\cpu_io.o
                                                  obj\Release\src\main.o
cpuIoPoll                                         obj\Release\src\cpu_io.o
                                                  obj\Release\src\main.o
cpuIoPop                                          obj\Release\src\cpu_io.o
                                                  obj\Release\src\main.o
cpuIoPush                                         obj\Release\src\cpu_io.o
                                                  obj\Release\src\main.o
cpuIoReset                                        obj\Release\src\cpu_io.o
exit                                              c:/programs/winavr-20100110/bin/../lib/gcc/avr/4.3.3/avr4\libgcc.a(_exit.o)
                                                  c:/programs/winavr-20100110/bin/../lib/gcc/avr/4.3.3/../../../../avr/lib/avr4/crtm8.o
g_eepromParams                                    obj\Release\src\funcs.o
g_ioBuffer                                        obj\Release\src\cpu_io.o
g_ioExpected                                      obj\Release\src\cpu_io.o
g_ioRdPtr                                         obj\Release\src\cpu_io.o
g_ioWatchdog                                      obj\Release\src\cpu_io.o
g_ioWrPtr                                         obj\Release\src\cpu_io.o
g_ramParams                                       obj\Release\src\funcs.o
initLeds                                          obj\Release\src\dbg.o
                                                  obj\Release\src\main.o
invoke                                            obj\Release\src\funcs.o
                                                  obj\Release\src\cpu_io.o
main                                              obj\Release\src\main.o
                                                  c:/programs/winavr-20100110/bin/../lib/gcc/avr/4.3.3/../../../../avr/lib/avr4/crtm8.o
setLed0                                           obj\Release\src\dbg.o
setLed1                                           obj\Release\src\dbg.o
setLeds                                           obj\Release\src\dbg.o
usbConfiguration                                  obj\Release\usbdrv\usbdrv.o
usbCrc16                                          obj\Release\usbdrv\usbdrvasm.o
usbCrc16Append                                    obj\Release\usbdrv\usbdrvasm.o
                                                  obj\Release\usbdrv\usbdrv.o
usbCurrentTok                                     obj\Release\usbdrv\usbdrvasm.o
                                                  obj\Release\usbdrv\usbdrv.o
usbDescriptorConfiguration                        obj\Release\usbdrv\usbdrv.o
usbDescriptorDevice                               obj\Release\usbdrv\usbdrv.o
usbDescriptorString0                              obj\Release\usbdrv\usbdrv.o
usbDescriptorStringDevice                         obj\Release\usbdrv\usbdrv.o
usbDescriptorStringVendor                         obj\Release\usbdrv\usbdrv.o
usbDeviceAddr                                     obj\Release\usbdrv\usbdrvasm.o
                                                  obj\Release\usbdrv\usbdrv.o
usbFunctionRead                                   obj\Release\src\main.o
                                                  obj\Release\usbdrv\usbdrv.o
usbFunctionSetup                                  obj\Release\src\main.o
                                                  obj\Release\usbdrv\usbdrv.o
usbFunctionWrite                                  obj\Release\src\main.o
                                                  obj\Release\usbdrv\usbdrv.o
usbInit                                           obj\Release\usbdrv\usbdrv.o
                                                  obj\Release\src\main.o
usbInputBufOffset                                 obj\Release\usbdrv\usbdrvasm.o
                                                  obj\Release\usbdrv\usbdrv.o
usbMsgPtr                                         obj\Release\usbdrv\usbdrv.o
                                                  obj\Release\src\main.o
usbNewDeviceAddr                                  obj\Release\usbdrv\usbdrvasm.o
                                                  obj\Release\usbdrv\usbdrv.o
usbPoll                                           obj\Release\usbdrv\usbdrv.o
                                                  obj\Release\src\main.o
usbRxBuf                                          obj\Release\usbdrv\usbdrvasm.o
                                                  obj\Release\usbdrv\usbdrv.o
usbRxLen                                          obj\Release\usbdrv\usbdrvasm.o
                                                  obj\Release\usbdrv\usbdrv.o
usbRxToken                                        obj\Release\usbdrv\usbdrvasm.o
                                                  obj\Release\usbdrv\usbdrv.o
usbTxBuf                                          obj\Release\usbdrv\usbdrvasm.o
                                                  obj\Release\usbdrv\usbdrv.o
usbTxLen                                          obj\Release\usbdrv\usbdrv.o
                                                  obj\Release\usbdrv\usbdrvasm.o
