
bin\Release\atmega8.elf:     file format elf32-avr

Sections:
Idx Name          Size      VMA       LMA       File off  Algn
  0 .text         0000089a  00000000  00000000  00000094  2**1
                  CONTENTS, ALLOC, LOAD, READONLY, CODE
  1 .data         0000000e  00800060  0000089a  0000092e  2**0
                  CONTENTS, ALLOC, LOAD, DATA
  2 .bss          00000158  0080006e  0080006e  0000093c  2**0
                  ALLOC

Disassembly of section .text:

00000000 <__vectors>:
   0:	45 c0       	rjmp	.+138    	; 0x8c <__ctors_end>
   2:	96 c2       	rjmp	.+1324   	; 0x530 <__vector_1>
   4:	5e c0       	rjmp	.+188    	; 0xc2 <__bad_interrupt>
   6:	5d c0       	rjmp	.+186    	; 0xc2 <__bad_interrupt>
   8:	5c c0       	rjmp	.+184    	; 0xc2 <__bad_interrupt>
   a:	5b c0       	rjmp	.+182    	; 0xc2 <__bad_interrupt>
   c:	5a c0       	rjmp	.+180    	; 0xc2 <__bad_interrupt>
   e:	59 c0       	rjmp	.+178    	; 0xc2 <__bad_interrupt>
  10:	58 c0       	rjmp	.+176    	; 0xc2 <__bad_interrupt>
  12:	57 c0       	rjmp	.+174    	; 0xc2 <__bad_interrupt>
  14:	56 c0       	rjmp	.+172    	; 0xc2 <__bad_interrupt>
  16:	55 c0       	rjmp	.+170    	; 0xc2 <__bad_interrupt>
  18:	54 c0       	rjmp	.+168    	; 0xc2 <__bad_interrupt>
  1a:	53 c0       	rjmp	.+166    	; 0xc2 <__bad_interrupt>
  1c:	52 c0       	rjmp	.+164    	; 0xc2 <__bad_interrupt>
  1e:	51 c0       	rjmp	.+162    	; 0xc2 <__bad_interrupt>
  20:	50 c0       	rjmp	.+160    	; 0xc2 <__bad_interrupt>
  22:	4f c0       	rjmp	.+158    	; 0xc2 <__bad_interrupt>
  24:	4e c0       	rjmp	.+156    	; 0xc2 <__bad_interrupt>

00000026 <usbDescriptorString0>:
  26:	04 03 09 04                                         ....

0000002a <usbDescriptorStringVendor>:
  2a:	1e 03 74 00 72 00 61 00 6e 00 73 00 6d 00 61 00     ..t.r.a.n.s.m.a.
  3a:	67 00 6e 00 65 00 74 00 69 00 63 00 73 00           g.n.e.t.i.c.s.

00000048 <usbDescriptorStringDevice>:
  48:	20 03 62 00 72 00 75 00 73 00 68 00 6c 00 65 00      .b.r.u.s.h.l.e.
  58:	73 00 73 00 5f 00 6d 00 6f 00 74 00 6f 00 72 00     s.s._.m.o.t.o.r.

00000068 <usbDescriptorDevice>:
  68:	12 01 10 01 ff 00 00 08 c0 16 dd 05 00 01 01 02     ................
  78:	00 01                                               ..

0000007a <usbDescriptorConfiguration>:
  7a:	09 02 12 00 01 01 00 80 0a 09 04 00 00 00 00 00     ................
	...

0000008c <__ctors_end>:
  8c:	11 24       	eor	r1, r1
  8e:	1f be       	out	0x3f, r1	; 63
  90:	cf e5       	ldi	r28, 0x5F	; 95
  92:	d4 e0       	ldi	r29, 0x04	; 4
  94:	de bf       	out	0x3e, r29	; 62
  96:	cd bf       	out	0x3d, r28	; 61

00000098 <__do_copy_data>:
  98:	10 e0       	ldi	r17, 0x00	; 0
  9a:	a0 e6       	ldi	r26, 0x60	; 96
  9c:	b0 e0       	ldi	r27, 0x00	; 0
  9e:	ea e9       	ldi	r30, 0x9A	; 154
  a0:	f8 e0       	ldi	r31, 0x08	; 8
  a2:	02 c0       	rjmp	.+4      	; 0xa8 <.do_copy_data_start>

000000a4 <.do_copy_data_loop>:
  a4:	05 90       	lpm	r0, Z+
  a6:	0d 92       	st	X+, r0

000000a8 <.do_copy_data_start>:
  a8:	ae 36       	cpi	r26, 0x6E	; 110
  aa:	b1 07       	cpc	r27, r17
  ac:	d9 f7       	brne	.-10     	; 0xa4 <.do_copy_data_loop>

000000ae <__do_clear_bss>:
  ae:	11 e0       	ldi	r17, 0x01	; 1
  b0:	ae e6       	ldi	r26, 0x6E	; 110
  b2:	b0 e0       	ldi	r27, 0x00	; 0
  b4:	01 c0       	rjmp	.+2      	; 0xb8 <.do_clear_bss_start>

000000b6 <.do_clear_bss_loop>:
  b6:	1d 92       	st	X+, r1

000000b8 <.do_clear_bss_start>:
  b8:	a6 3c       	cpi	r26, 0xC6	; 198
  ba:	b1 07       	cpc	r27, r17
  bc:	e1 f7       	brne	.-8      	; 0xb6 <.do_clear_bss_loop>
  be:	e5 d0       	rcall	.+458    	; 0x28a <main>
  c0:	ea c3       	rjmp	.+2004   	; 0x896 <_exit>

000000c2 <__bad_interrupt>:
  c2:	9e cf       	rjmp	.-196    	; 0x0 <__vectors>

000000c4 <initLeds>:
  c4:	81 b3       	in	r24, 0x11	; 17
  c6:	83 60       	ori	r24, 0x03	; 3
  c8:	81 bb       	out	0x11, r24	; 17
  ca:	82 b3       	in	r24, 0x12	; 18
  cc:	82 bb       	out	0x12, r24	; 18
  ce:	08 95       	ret

000000d0 <setLeds>:
  d0:	92 b3       	in	r25, 0x12	; 18
  d2:	9c 7f       	andi	r25, 0xFC	; 252
  d4:	98 2b       	or	r25, r24
  d6:	92 bb       	out	0x12, r25	; 18
  d8:	08 95       	ret

000000da <setLed0>:
  da:	92 b3       	in	r25, 0x12	; 18
  dc:	9e 7f       	andi	r25, 0xFE	; 254
  de:	98 2b       	or	r25, r24
  e0:	92 bb       	out	0x12, r25	; 18
  e2:	08 95       	ret

000000e4 <setLed1>:
  e4:	92 b3       	in	r25, 0x12	; 18
  e6:	9d 7f       	andi	r25, 0xFD	; 253
  e8:	98 2b       	or	r25, r24
  ea:	92 bb       	out	0x12, r25	; 18
  ec:	08 95       	ret

000000ee <blinkLed0>:
  ee:	82 b3       	in	r24, 0x12	; 18
  f0:	92 b3       	in	r25, 0x12	; 18
  f2:	80 95       	com	r24
  f4:	81 70       	andi	r24, 0x01	; 1
  f6:	9e 7f       	andi	r25, 0xFE	; 254
  f8:	89 2b       	or	r24, r25
  fa:	82 bb       	out	0x12, r24	; 18
  fc:	08 95       	ret

000000fe <blinkLed1>:
  fe:	91 99       	sbic	0x12, 1	; 18
 100:	02 c0       	rjmp	.+4      	; 0x106 <blinkLed1+0x8>
 102:	92 e0       	ldi	r25, 0x02	; 2
 104:	01 c0       	rjmp	.+2      	; 0x108 <blinkLed1+0xa>
 106:	90 e0       	ldi	r25, 0x00	; 0
 108:	82 b3       	in	r24, 0x12	; 18
 10a:	8d 7f       	andi	r24, 0xFD	; 253
 10c:	98 2b       	or	r25, r24
 10e:	92 bb       	out	0x12, r25	; 18
 110:	08 95       	ret

00000112 <invoke>:
 112:	df 93       	push	r29
 114:	cf 93       	push	r28
 116:	cd b7       	in	r28, 0x3d	; 61
 118:	de b7       	in	r29, 0x3e	; 62
 11a:	2b 97       	sbiw	r28, 0x0b	; 11
 11c:	0f b6       	in	r0, 0x3f	; 63
 11e:	f8 94       	cli
 120:	de bf       	out	0x3e, r29	; 62
 122:	0f be       	out	0x3f, r0	; 63
 124:	cd bf       	out	0x3d, r28	; 61
 126:	fb 01       	movw	r30, r22
 128:	83 30       	cpi	r24, 0x03	; 3
 12a:	31 f1       	breq	.+76     	; 0x178 <invoke+0x66>
 12c:	84 30       	cpi	r24, 0x04	; 4
 12e:	38 f4       	brcc	.+14     	; 0x13e <invoke+0x2c>
 130:	81 30       	cpi	r24, 0x01	; 1
 132:	09 f4       	brne	.+2      	; 0x136 <invoke+0x24>
 134:	60 c0       	rjmp	.+192    	; 0x1f6 <invoke+0xe4>
 136:	82 30       	cpi	r24, 0x02	; 2
 138:	09 f0       	breq	.+2      	; 0x13c <invoke+0x2a>
 13a:	6f c0       	rjmp	.+222    	; 0x21a <invoke+0x108>
 13c:	06 c0       	rjmp	.+12     	; 0x14a <invoke+0x38>
 13e:	84 30       	cpi	r24, 0x04	; 4
 140:	79 f1       	breq	.+94     	; 0x1a0 <invoke+0x8e>
 142:	85 30       	cpi	r24, 0x05	; 5
 144:	09 f0       	breq	.+2      	; 0x148 <invoke+0x36>
 146:	69 c0       	rjmp	.+210    	; 0x21a <invoke+0x108>
 148:	42 c0       	rjmp	.+132    	; 0x1ce <invoke+0xbc>
 14a:	80 81       	ld	r24, Z
 14c:	21 81       	ldd	r18, Z+1	; 0x01
 14e:	db 01       	movw	r26, r22
 150:	90 e0       	ldi	r25, 0x00	; 0
 152:	fc 01       	movw	r30, r24
 154:	e4 58       	subi	r30, 0x84	; 132
 156:	ff 4f       	sbci	r31, 0xFF	; 255
 158:	ac 01       	movw	r20, r24
 15a:	42 0f       	add	r20, r18
 15c:	51 1d       	adc	r21, r1
 15e:	9a 01       	movw	r18, r20
 160:	24 58       	subi	r18, 0x84	; 132
 162:	3f 4f       	sbci	r19, 0xFF	; 255
 164:	04 c0       	rjmp	.+8      	; 0x16e <invoke+0x5c>
 166:	11 96       	adiw	r26, 0x01	; 1
 168:	8c 91       	ld	r24, X
 16a:	11 97       	sbiw	r26, 0x01	; 1
 16c:	81 93       	st	Z+, r24
 16e:	11 96       	adiw	r26, 0x01	; 1
 170:	e2 17       	cp	r30, r18
 172:	f3 07       	cpc	r31, r19
 174:	c1 f7       	brne	.-16     	; 0x166 <invoke+0x54>
 176:	63 c0       	rjmp	.+198    	; 0x23e <invoke+0x12c>
 178:	80 81       	ld	r24, Z
 17a:	21 81       	ldd	r18, Z+1	; 0x01
 17c:	90 e0       	ldi	r25, 0x00	; 0
 17e:	dc 01       	movw	r26, r24
 180:	a4 58       	subi	r26, 0x84	; 132
 182:	bf 4f       	sbci	r27, 0xFF	; 255
 184:	ac 01       	movw	r20, r24
 186:	42 0f       	add	r20, r18
 188:	51 1d       	adc	r21, r1
 18a:	9a 01       	movw	r18, r20
 18c:	24 58       	subi	r18, 0x84	; 132
 18e:	3f 4f       	sbci	r19, 0xFF	; 255
 190:	02 c0       	rjmp	.+4      	; 0x196 <invoke+0x84>
 192:	8d 91       	ld	r24, X+
 194:	81 83       	std	Z+1, r24	; 0x01
 196:	31 96       	adiw	r30, 0x01	; 1
 198:	a2 17       	cp	r26, r18
 19a:	b3 07       	cpc	r27, r19
 19c:	d1 f7       	brne	.-12     	; 0x192 <invoke+0x80>
 19e:	4f c0       	rjmp	.+158    	; 0x23e <invoke+0x12c>
 1a0:	80 81       	ld	r24, Z
 1a2:	21 81       	ldd	r18, Z+1	; 0x01
 1a4:	db 01       	movw	r26, r22
 1a6:	90 e0       	ldi	r25, 0x00	; 0
 1a8:	fc 01       	movw	r30, r24
 1aa:	e4 50       	subi	r30, 0x04	; 4
 1ac:	ff 4f       	sbci	r31, 0xFF	; 255
 1ae:	ac 01       	movw	r20, r24
 1b0:	42 0f       	add	r20, r18
 1b2:	51 1d       	adc	r21, r1
 1b4:	9a 01       	movw	r18, r20
 1b6:	24 50       	subi	r18, 0x04	; 4
 1b8:	3f 4f       	sbci	r19, 0xFF	; 255
 1ba:	04 c0       	rjmp	.+8      	; 0x1c4 <invoke+0xb2>
 1bc:	11 96       	adiw	r26, 0x01	; 1
 1be:	8c 91       	ld	r24, X
 1c0:	11 97       	sbiw	r26, 0x01	; 1
 1c2:	81 93       	st	Z+, r24
 1c4:	11 96       	adiw	r26, 0x01	; 1
 1c6:	e2 17       	cp	r30, r18
 1c8:	f3 07       	cpc	r31, r19
 1ca:	c1 f7       	brne	.-16     	; 0x1bc <invoke+0xaa>
 1cc:	38 c0       	rjmp	.+112    	; 0x23e <invoke+0x12c>
 1ce:	80 81       	ld	r24, Z
 1d0:	21 81       	ldd	r18, Z+1	; 0x01
 1d2:	90 e0       	ldi	r25, 0x00	; 0
 1d4:	dc 01       	movw	r26, r24
 1d6:	a4 50       	subi	r26, 0x04	; 4
 1d8:	bf 4f       	sbci	r27, 0xFF	; 255
 1da:	ac 01       	movw	r20, r24
 1dc:	42 0f       	add	r20, r18
 1de:	51 1d       	adc	r21, r1
 1e0:	9a 01       	movw	r18, r20
 1e2:	24 50       	subi	r18, 0x04	; 4
 1e4:	3f 4f       	sbci	r19, 0xFF	; 255
 1e6:	02 c0       	rjmp	.+4      	; 0x1ec <invoke+0xda>
 1e8:	8d 91       	ld	r24, X+
 1ea:	81 83       	std	Z+1, r24	; 0x01
 1ec:	31 96       	adiw	r30, 0x01	; 1
 1ee:	a2 17       	cp	r26, r18
 1f0:	b3 07       	cpc	r27, r19
 1f2:	d1 f7       	brne	.-12     	; 0x1e8 <invoke+0xd6>
 1f4:	24 c0       	rjmp	.+72     	; 0x23e <invoke+0x12c>
 1f6:	9e 01       	movw	r18, r28
 1f8:	2f 5f       	subi	r18, 0xFF	; 255
 1fa:	3f 4f       	sbci	r19, 0xFF	; 255
 1fc:	40 e6       	ldi	r20, 0x60	; 96
 1fe:	50 e0       	ldi	r21, 0x00	; 0
 200:	85 e0       	ldi	r24, 0x05	; 5
 202:	da 01       	movw	r26, r20
 204:	0d 90       	ld	r0, X+
 206:	ad 01       	movw	r20, r26
 208:	d9 01       	movw	r26, r18
 20a:	0d 92       	st	X+, r0
 20c:	9d 01       	movw	r18, r26
 20e:	81 50       	subi	r24, 0x01	; 1
 210:	c1 f7       	brne	.-16     	; 0x202 <invoke+0xf0>
 212:	89 81       	ldd	r24, Y+1	; 0x01
 214:	88 23       	and	r24, r24
 216:	f1 f7       	brne	.-4      	; 0x214 <invoke+0x102>
 218:	11 c0       	rjmp	.+34     	; 0x23c <invoke+0x12a>
 21a:	9e 01       	movw	r18, r28
 21c:	2a 5f       	subi	r18, 0xFA	; 250
 21e:	3f 4f       	sbci	r19, 0xFF	; 255
 220:	45 e6       	ldi	r20, 0x65	; 101
 222:	50 e0       	ldi	r21, 0x00	; 0
 224:	86 e0       	ldi	r24, 0x06	; 6
 226:	da 01       	movw	r26, r20
 228:	0d 90       	ld	r0, X+
 22a:	ad 01       	movw	r20, r26
 22c:	d9 01       	movw	r26, r18
 22e:	0d 92       	st	X+, r0
 230:	9d 01       	movw	r18, r26
 232:	81 50       	subi	r24, 0x01	; 1
 234:	c1 f7       	brne	.-16     	; 0x226 <invoke+0x114>
 236:	8e 81       	ldd	r24, Y+6	; 0x06
 238:	88 23       	and	r24, r24
 23a:	f1 f7       	brne	.-4      	; 0x238 <invoke+0x126>
 23c:	10 82       	st	Z, r1
 23e:	2b 96       	adiw	r28, 0x0b	; 11
 240:	0f b6       	in	r0, 0x3f	; 63
 242:	f8 94       	cli
 244:	de bf       	out	0x3e, r29	; 62
 246:	0f be       	out	0x3f, r0	; 63
 248:	cd bf       	out	0x3d, r28	; 61
 24a:	cf 91       	pop	r28
 24c:	df 91       	pop	r29
 24e:	08 95       	ret

00000250 <usbFunctionSetup>:
 250:	fc 01       	movw	r30, r24
 252:	8e e6       	ldi	r24, 0x6E	; 110
 254:	90 e0       	ldi	r25, 0x00	; 0
 256:	90 93 8b 01 	sts	0x018B, r25
 25a:	80 93 8a 01 	sts	0x018A, r24
 25e:	80 81       	ld	r24, Z
 260:	80 76       	andi	r24, 0x60	; 96
 262:	80 32       	cpi	r24, 0x20	; 32
 264:	39 f4       	brne	.+14     	; 0x274 <usbFunctionSetup+0x24>
 266:	81 81       	ldd	r24, Z+1	; 0x01
 268:	81 30       	cpi	r24, 0x01	; 1
 26a:	11 f0       	breq	.+4      	; 0x270 <usbFunctionSetup+0x20>
 26c:	89 30       	cpi	r24, 0x09	; 9
 26e:	11 f4       	brne	.+4      	; 0x274 <usbFunctionSetup+0x24>
 270:	8f ef       	ldi	r24, 0xFF	; 255
 272:	08 95       	ret
 274:	80 e0       	ldi	r24, 0x00	; 0
 276:	08 95       	ret

00000278 <usbFunctionWrite>:
 278:	ae d2       	rcall	.+1372   	; 0x7d6 <cpuIoPush>
 27a:	81 e0       	ldi	r24, 0x01	; 1
 27c:	08 95       	ret

0000027e <usbFunctionRead>:
 27e:	1f 93       	push	r17
 280:	16 2f       	mov	r17, r22
 282:	93 d2       	rcall	.+1318   	; 0x7aa <cpuIoPop>
 284:	81 2f       	mov	r24, r17
 286:	1f 91       	pop	r17
 288:	08 95       	ret

0000028a <main>:
 28a:	f8 94       	cli
 28c:	1b df       	rcall	.-458    	; 0xc4 <initLeds>
 28e:	2e e0       	ldi	r18, 0x0E	; 14
 290:	88 e1       	ldi	r24, 0x18	; 24
 292:	90 e0       	ldi	r25, 0x00	; 0
 294:	0f b6       	in	r0, 0x3f	; 63
 296:	f8 94       	cli
 298:	a8 95       	wdr
 29a:	81 bd       	out	0x21, r24	; 33
 29c:	0f be       	out	0x3f, r0	; 63
 29e:	21 bd       	out	0x21, r18	; 33
 2a0:	12 d0       	rcall	.+36     	; 0x2c6 <usbInit>
 2a2:	8b 9a       	sbi	0x11, 3	; 17
 2a4:	26 e9       	ldi	r18, 0x96	; 150
 2a6:	48 eb       	ldi	r20, 0xB8	; 184
 2a8:	5b e0       	ldi	r21, 0x0B	; 11
 2aa:	04 c0       	rjmp	.+8      	; 0x2b4 <main+0x2a>
 2ac:	ca 01       	movw	r24, r20
 2ae:	01 97       	sbiw	r24, 0x01	; 1
 2b0:	f1 f7       	brne	.-4      	; 0x2ae <main+0x24>
 2b2:	a8 95       	wdr
 2b4:	21 50       	subi	r18, 0x01	; 1
 2b6:	d0 f7       	brcc	.-12     	; 0x2ac <main+0x22>
 2b8:	68 d2       	rcall	.+1232   	; 0x78a <cpuIoInit>
 2ba:	8b 98       	cbi	0x11, 3	; 17
 2bc:	78 94       	sei
 2be:	0a d0       	rcall	.+20     	; 0x2d4 <usbPoll>
 2c0:	a8 95       	wdr
 2c2:	ca d2       	rcall	.+1428   	; 0x858 <cpuIoPoll>
 2c4:	fc cf       	rjmp	.-8      	; 0x2be <main+0x34>

000002c6 <usbInit>:
 2c6:	85 b7       	in	r24, 0x35	; 53
 2c8:	82 60       	ori	r24, 0x02	; 2
 2ca:	85 bf       	out	0x35, r24	; 53
 2cc:	8b b7       	in	r24, 0x3b	; 59
 2ce:	80 64       	ori	r24, 0x40	; 64
 2d0:	8b bf       	out	0x3b, r24	; 59
 2d2:	08 95       	ret

000002d4 <usbPoll>:
 2d4:	1f 93       	push	r17
 2d6:	cf 93       	push	r28
 2d8:	df 93       	push	r29
 2da:	60 91 8c 01 	lds	r22, 0x018C
 2de:	63 50       	subi	r22, 0x03	; 3
 2e0:	67 fd       	sbrc	r22, 7
 2e2:	a3 c0       	rjmp	.+326    	; 0x42a <usbPoll+0x156>
 2e4:	80 91 89 01 	lds	r24, 0x0189
 2e8:	cc e0       	ldi	r28, 0x0C	; 12
 2ea:	d0 e0       	ldi	r29, 0x00	; 0
 2ec:	c8 1b       	sub	r28, r24
 2ee:	d1 09       	sbc	r29, r1
 2f0:	c0 57       	subi	r28, 0x70	; 112
 2f2:	de 4f       	sbci	r29, 0xFE	; 254
 2f4:	80 91 88 01 	lds	r24, 0x0188
 2f8:	8d 32       	cpi	r24, 0x2D	; 45
 2fa:	09 f0       	breq	.+2      	; 0x2fe <usbPoll+0x2a>
 2fc:	84 c0       	rjmp	.+264    	; 0x406 <usbPoll+0x132>
 2fe:	68 30       	cpi	r22, 0x08	; 8
 300:	09 f0       	breq	.+2      	; 0x304 <usbPoll+0x30>
 302:	91 c0       	rjmp	.+290    	; 0x426 <usbPoll+0x152>
 304:	83 ec       	ldi	r24, 0xC3	; 195
 306:	80 93 7c 01 	sts	0x017C, r24
 30a:	8a e5       	ldi	r24, 0x5A	; 90
 30c:	80 93 6b 00 	sts	0x006B, r24
 310:	10 92 76 00 	sts	0x0076, r1
 314:	88 81       	ld	r24, Y
 316:	80 76       	andi	r24, 0x60	; 96
 318:	39 f0       	breq	.+14     	; 0x328 <usbPoll+0x54>
 31a:	ce 01       	movw	r24, r28
 31c:	99 df       	rcall	.-206    	; 0x250 <usbFunctionSetup>
 31e:	28 2f       	mov	r18, r24
 320:	8f 3f       	cpi	r24, 0xFF	; 255
 322:	09 f4       	brne	.+2      	; 0x326 <usbPoll+0x52>
 324:	5f c0       	rjmp	.+190    	; 0x3e4 <usbPoll+0x110>
 326:	65 c0       	rjmp	.+202    	; 0x3f2 <usbPoll+0x11e>
 328:	9a 81       	ldd	r25, Y+2	; 0x02
 32a:	10 92 85 01 	sts	0x0185, r1
 32e:	89 81       	ldd	r24, Y+1	; 0x01
 330:	88 23       	and	r24, r24
 332:	21 f4       	brne	.+8      	; 0x33c <usbPoll+0x68>
 334:	10 92 86 01 	sts	0x0186, r1
 338:	22 e0       	ldi	r18, 0x02	; 2
 33a:	4d c0       	rjmp	.+154    	; 0x3d6 <usbPoll+0x102>
 33c:	85 30       	cpi	r24, 0x05	; 5
 33e:	19 f4       	brne	.+6      	; 0x346 <usbPoll+0x72>
 340:	90 93 8d 01 	sts	0x018D, r25
 344:	47 c0       	rjmp	.+142    	; 0x3d4 <usbPoll+0x100>
 346:	86 30       	cpi	r24, 0x06	; 6
 348:	b1 f5       	brne	.+108    	; 0x3b6 <usbPoll+0xe2>
 34a:	8b 81       	ldd	r24, Y+3	; 0x03
 34c:	81 30       	cpi	r24, 0x01	; 1
 34e:	19 f4       	brne	.+6      	; 0x356 <usbPoll+0x82>
 350:	88 e6       	ldi	r24, 0x68	; 104
 352:	90 e0       	ldi	r25, 0x00	; 0
 354:	04 c0       	rjmp	.+8      	; 0x35e <usbPoll+0x8a>
 356:	82 30       	cpi	r24, 0x02	; 2
 358:	41 f4       	brne	.+16     	; 0x36a <usbPoll+0x96>
 35a:	8a e7       	ldi	r24, 0x7A	; 122
 35c:	90 e0       	ldi	r25, 0x00	; 0
 35e:	90 93 8b 01 	sts	0x018B, r25
 362:	80 93 8a 01 	sts	0x018A, r24
 366:	22 e1       	ldi	r18, 0x12	; 18
 368:	22 c0       	rjmp	.+68     	; 0x3ae <usbPoll+0xda>
 36a:	83 30       	cpi	r24, 0x03	; 3
 36c:	f9 f4       	brne	.+62     	; 0x3ac <usbPoll+0xd8>
 36e:	8a 81       	ldd	r24, Y+2	; 0x02
 370:	88 23       	and	r24, r24
 372:	41 f4       	brne	.+16     	; 0x384 <usbPoll+0xb0>
 374:	86 e2       	ldi	r24, 0x26	; 38
 376:	90 e0       	ldi	r25, 0x00	; 0
 378:	90 93 8b 01 	sts	0x018B, r25
 37c:	80 93 8a 01 	sts	0x018A, r24
 380:	24 e0       	ldi	r18, 0x04	; 4
 382:	15 c0       	rjmp	.+42     	; 0x3ae <usbPoll+0xda>
 384:	81 30       	cpi	r24, 0x01	; 1
 386:	41 f4       	brne	.+16     	; 0x398 <usbPoll+0xc4>
 388:	8a e2       	ldi	r24, 0x2A	; 42
 38a:	90 e0       	ldi	r25, 0x00	; 0
 38c:	90 93 8b 01 	sts	0x018B, r25
 390:	80 93 8a 01 	sts	0x018A, r24
 394:	2e e1       	ldi	r18, 0x1E	; 30
 396:	0b c0       	rjmp	.+22     	; 0x3ae <usbPoll+0xda>
 398:	82 30       	cpi	r24, 0x02	; 2
 39a:	41 f4       	brne	.+16     	; 0x3ac <usbPoll+0xd8>
 39c:	88 e4       	ldi	r24, 0x48	; 72
 39e:	90 e0       	ldi	r25, 0x00	; 0
 3a0:	90 93 8b 01 	sts	0x018B, r25
 3a4:	80 93 8a 01 	sts	0x018A, r24
 3a8:	20 e2       	ldi	r18, 0x20	; 32
 3aa:	01 c0       	rjmp	.+2      	; 0x3ae <usbPoll+0xda>
 3ac:	20 e0       	ldi	r18, 0x00	; 0
 3ae:	80 e4       	ldi	r24, 0x40	; 64
 3b0:	80 93 76 00 	sts	0x0076, r24
 3b4:	1e c0       	rjmp	.+60     	; 0x3f2 <usbPoll+0x11e>
 3b6:	88 30       	cpi	r24, 0x08	; 8
 3b8:	21 f4       	brne	.+8      	; 0x3c2 <usbPoll+0xee>
 3ba:	21 e0       	ldi	r18, 0x01	; 1
 3bc:	8f e8       	ldi	r24, 0x8F	; 143
 3be:	91 e0       	ldi	r25, 0x01	; 1
 3c0:	0c c0       	rjmp	.+24     	; 0x3da <usbPoll+0x106>
 3c2:	89 30       	cpi	r24, 0x09	; 9
 3c4:	19 f4       	brne	.+6      	; 0x3cc <usbPoll+0xf8>
 3c6:	90 93 8f 01 	sts	0x018F, r25
 3ca:	04 c0       	rjmp	.+8      	; 0x3d4 <usbPoll+0x100>
 3cc:	8a 30       	cpi	r24, 0x0A	; 10
 3ce:	11 f4       	brne	.+4      	; 0x3d4 <usbPoll+0x100>
 3d0:	21 e0       	ldi	r18, 0x01	; 1
 3d2:	01 c0       	rjmp	.+2      	; 0x3d6 <usbPoll+0x102>
 3d4:	20 e0       	ldi	r18, 0x00	; 0
 3d6:	85 e8       	ldi	r24, 0x85	; 133
 3d8:	91 e0       	ldi	r25, 0x01	; 1
 3da:	90 93 8b 01 	sts	0x018B, r25
 3de:	80 93 8a 01 	sts	0x018A, r24
 3e2:	07 c0       	rjmp	.+14     	; 0x3f2 <usbPoll+0x11e>
 3e4:	88 81       	ld	r24, Y
 3e6:	87 fd       	sbrc	r24, 7
 3e8:	2e 81       	ldd	r18, Y+6	; 0x06
 3ea:	80 e8       	ldi	r24, 0x80	; 128
 3ec:	80 93 76 00 	sts	0x0076, r24
 3f0:	06 c0       	rjmp	.+12     	; 0x3fe <usbPoll+0x12a>
 3f2:	8f 81       	ldd	r24, Y+7	; 0x07
 3f4:	88 23       	and	r24, r24
 3f6:	19 f4       	brne	.+6      	; 0x3fe <usbPoll+0x12a>
 3f8:	8e 81       	ldd	r24, Y+6	; 0x06
 3fa:	82 17       	cp	r24, r18
 3fc:	08 f0       	brcs	.+2      	; 0x400 <usbPoll+0x12c>
 3fe:	82 2f       	mov	r24, r18
 400:	80 93 6c 00 	sts	0x006C, r24
 404:	10 c0       	rjmp	.+32     	; 0x426 <usbPoll+0x152>
 406:	80 91 76 00 	lds	r24, 0x0076
 40a:	87 ff       	sbrs	r24, 7
 40c:	0c c0       	rjmp	.+24     	; 0x426 <usbPoll+0x152>
 40e:	ce 01       	movw	r24, r28
 410:	33 df       	rcall	.-410    	; 0x278 <usbFunctionWrite>
 412:	8f 3f       	cpi	r24, 0xFF	; 255
 414:	21 f4       	brne	.+8      	; 0x41e <usbPoll+0x14a>
 416:	8e e1       	ldi	r24, 0x1E	; 30
 418:	80 93 6b 00 	sts	0x006B, r24
 41c:	04 c0       	rjmp	.+8      	; 0x426 <usbPoll+0x152>
 41e:	88 23       	and	r24, r24
 420:	11 f0       	breq	.+4      	; 0x426 <usbPoll+0x152>
 422:	10 92 6c 00 	sts	0x006C, r1
 426:	10 92 8c 01 	sts	0x018C, r1
 42a:	80 91 6b 00 	lds	r24, 0x006B
 42e:	84 ff       	sbrs	r24, 4
 430:	58 c0       	rjmp	.+176    	; 0x4e2 <__stack+0x83>
 432:	80 91 6c 00 	lds	r24, 0x006C
 436:	8f 3f       	cpi	r24, 0xFF	; 255
 438:	09 f4       	brne	.+2      	; 0x43c <usbPoll+0x168>
 43a:	53 c0       	rjmp	.+166    	; 0x4e2 <__stack+0x83>
 43c:	18 2f       	mov	r17, r24
 43e:	89 30       	cpi	r24, 0x09	; 9
 440:	08 f0       	brcs	.+2      	; 0x444 <usbPoll+0x170>
 442:	18 e0       	ldi	r17, 0x08	; 8
 444:	81 1b       	sub	r24, r17
 446:	80 93 6c 00 	sts	0x006C, r24
 44a:	80 91 7c 01 	lds	r24, 0x017C
 44e:	98 e8       	ldi	r25, 0x88	; 136
 450:	89 27       	eor	r24, r25
 452:	80 93 7c 01 	sts	0x017C, r24
 456:	11 23       	and	r17, r17
 458:	91 f1       	breq	.+100    	; 0x4be <__stack+0x5f>
 45a:	80 91 76 00 	lds	r24, 0x0076
 45e:	87 ff       	sbrs	r24, 7
 460:	08 c0       	rjmp	.+16     	; 0x472 <__stack+0x13>
 462:	8d e7       	ldi	r24, 0x7D	; 125
 464:	91 e0       	ldi	r25, 0x01	; 1
 466:	61 2f       	mov	r22, r17
 468:	0a df       	rcall	.-492    	; 0x27e <usbFunctionRead>
 46a:	18 2f       	mov	r17, r24
 46c:	89 30       	cpi	r24, 0x09	; 9
 46e:	98 f5       	brcc	.+102    	; 0x4d6 <__stack+0x77>
 470:	26 c0       	rjmp	.+76     	; 0x4be <__stack+0x5f>
 472:	20 91 8a 01 	lds	r18, 0x018A
 476:	30 91 8b 01 	lds	r19, 0x018B
 47a:	86 ff       	sbrs	r24, 6
 47c:	0d c0       	rjmp	.+26     	; 0x498 <__stack+0x39>
 47e:	ad e7       	ldi	r26, 0x7D	; 125
 480:	b1 e0       	ldi	r27, 0x01	; 1
 482:	80 e0       	ldi	r24, 0x00	; 0
 484:	90 e0       	ldi	r25, 0x00	; 0
 486:	f9 01       	movw	r30, r18
 488:	e8 0f       	add	r30, r24
 48a:	f9 1f       	adc	r31, r25
 48c:	e4 91       	lpm	r30, Z+
 48e:	ed 93       	st	X+, r30
 490:	01 96       	adiw	r24, 0x01	; 1
 492:	18 17       	cp	r17, r24
 494:	c1 f7       	brne	.-16     	; 0x486 <__stack+0x27>
 496:	08 c0       	rjmp	.+16     	; 0x4a8 <__stack+0x49>
 498:	91 2f       	mov	r25, r17
 49a:	d9 01       	movw	r26, r18
 49c:	ed e7       	ldi	r30, 0x7D	; 125
 49e:	f1 e0       	ldi	r31, 0x01	; 1
 4a0:	8d 91       	ld	r24, X+
 4a2:	81 93       	st	Z+, r24
 4a4:	91 50       	subi	r25, 0x01	; 1
 4a6:	e1 f7       	brne	.-8      	; 0x4a0 <__stack+0x41>
 4a8:	11 50       	subi	r17, 0x01	; 1
 4aa:	81 2f       	mov	r24, r17
 4ac:	90 e0       	ldi	r25, 0x00	; 0
 4ae:	1f 5f       	subi	r17, 0xFF	; 255
 4b0:	01 96       	adiw	r24, 0x01	; 1
 4b2:	82 0f       	add	r24, r18
 4b4:	93 1f       	adc	r25, r19
 4b6:	90 93 8b 01 	sts	0x018B, r25
 4ba:	80 93 8a 01 	sts	0x018A, r24
 4be:	8d e7       	ldi	r24, 0x7D	; 125
 4c0:	91 e0       	ldi	r25, 0x01	; 1
 4c2:	61 2f       	mov	r22, r17
 4c4:	31 d0       	rcall	.+98     	; 0x528 <usbCrc16Append>
 4c6:	61 2f       	mov	r22, r17
 4c8:	6c 5f       	subi	r22, 0xFC	; 252
 4ca:	6c 30       	cpi	r22, 0x0C	; 12
 4cc:	41 f0       	breq	.+16     	; 0x4de <__stack+0x7f>
 4ce:	8f ef       	ldi	r24, 0xFF	; 255
 4d0:	80 93 6c 00 	sts	0x006C, r24
 4d4:	04 c0       	rjmp	.+8      	; 0x4de <__stack+0x7f>
 4d6:	8f ef       	ldi	r24, 0xFF	; 255
 4d8:	80 93 6c 00 	sts	0x006C, r24
 4dc:	6e e1       	ldi	r22, 0x1E	; 30
 4de:	60 93 6b 00 	sts	0x006B, r22
 4e2:	94 e1       	ldi	r25, 0x14	; 20
 4e4:	80 b3       	in	r24, 0x10	; 16
 4e6:	8c 70       	andi	r24, 0x0C	; 12
 4e8:	31 f4       	brne	.+12     	; 0x4f6 <__stack+0x97>
 4ea:	91 50       	subi	r25, 0x01	; 1
 4ec:	d9 f7       	brne	.-10     	; 0x4e4 <__stack+0x85>
 4ee:	10 92 8d 01 	sts	0x018D, r1
 4f2:	10 92 87 01 	sts	0x0187, r1
 4f6:	df 91       	pop	r29
 4f8:	cf 91       	pop	r28
 4fa:	1f 91       	pop	r17
 4fc:	08 95       	ret

000004fe <usbCrc16>:
 4fe:	a8 2f       	mov	r26, r24
 500:	b9 2f       	mov	r27, r25
 502:	80 e0       	ldi	r24, 0x00	; 0
 504:	90 e0       	ldi	r25, 0x00	; 0
 506:	41 e0       	ldi	r20, 0x01	; 1
 508:	50 ea       	ldi	r21, 0xA0	; 160
 50a:	60 95       	com	r22
 50c:	30 e0       	ldi	r19, 0x00	; 0
 50e:	09 c0       	rjmp	.+18     	; 0x522 <usbCrcLoopEntry>

00000510 <usbCrcByteLoop>:
 510:	2d 91       	ld	r18, X+
 512:	82 27       	eor	r24, r18

00000514 <usbCrcBitLoop>:
 514:	97 95       	ror	r25
 516:	87 95       	ror	r24
 518:	10 f0       	brcs	.+4      	; 0x51e <usbCrcNoXor>
 51a:	84 27       	eor	r24, r20
 51c:	95 27       	eor	r25, r21

0000051e <usbCrcNoXor>:
 51e:	30 5e       	subi	r19, 0xE0	; 224
 520:	c8 f3       	brcs	.-14     	; 0x514 <usbCrcBitLoop>

00000522 <usbCrcLoopEntry>:
 522:	6f 5f       	subi	r22, 0xFF	; 255
 524:	a8 f3       	brcs	.-22     	; 0x510 <usbCrcByteLoop>

00000526 <usbCrcReady>:
 526:	08 95       	ret

00000528 <usbCrc16Append>:
 528:	ea df       	rcall	.-44     	; 0x4fe <usbCrc16>
 52a:	8d 93       	st	X+, r24
 52c:	9d 93       	st	X+, r25
 52e:	08 95       	ret

00000530 <__vector_1>:
 530:	cf 93       	push	r28
 532:	cf b7       	in	r28, 0x3f	; 63
 534:	cf 93       	push	r28

00000536 <waitForJ>:
 536:	c3 95       	inc	r28
 538:	83 9b       	sbis	0x10, 3	; 16
 53a:	e9 f7       	brne	.-6      	; 0x536 <waitForJ>

0000053c <waitForK>:
 53c:	83 9b       	sbis	0x10, 3	; 16
 53e:	09 c0       	rjmp	.+18     	; 0x552 <foundK>
 540:	83 9b       	sbis	0x10, 3	; 16
 542:	07 c0       	rjmp	.+14     	; 0x552 <foundK>
 544:	83 9b       	sbis	0x10, 3	; 16
 546:	05 c0       	rjmp	.+10     	; 0x552 <foundK>
 548:	83 9b       	sbis	0x10, 3	; 16
 54a:	03 c0       	rjmp	.+6      	; 0x552 <foundK>
 54c:	83 9b       	sbis	0x10, 3	; 16
 54e:	01 c0       	rjmp	.+2      	; 0x552 <foundK>
 550:	a1 c0       	rjmp	.+322    	; 0x694 <sofError>

00000552 <foundK>:
 552:	df 93       	push	r29
 554:	c0 91 89 01 	lds	r28, 0x0189
 558:	dd 27       	eor	r29, r29
 55a:	c0 57       	subi	r28, 0x70	; 112
 55c:	de 4f       	sbci	r29, 0xFE	; 254
 55e:	83 9b       	sbis	0x10, 3	; 16
 560:	02 c0       	rjmp	.+4      	; 0x566 <haveTwoBitsK>
 562:	df 91       	pop	r29
 564:	eb cf       	rjmp	.-42     	; 0x53c <waitForK>

00000566 <haveTwoBitsK>:
 566:	2f 93       	push	r18
 568:	0f 93       	push	r16
 56a:	1f 93       	push	r17
 56c:	00 b3       	in	r16, 0x10	; 16
 56e:	2f ef       	ldi	r18, 0xFF	; 255
 570:	03 fb       	bst	r16, 3
 572:	20 f9       	bld	r18, 0
 574:	4f 93       	push	r20
 576:	3f 93       	push	r19
 578:	10 b3       	in	r17, 0x10	; 16
 57a:	4f ef       	ldi	r20, 0xFF	; 255
 57c:	01 27       	eor	r16, r17
 57e:	03 fb       	bst	r16, 3
 580:	21 f9       	bld	r18, 1
 582:	3b e0       	ldi	r19, 0x0B	; 11
 584:	31 c0       	rjmp	.+98     	; 0x5e8 <rxbit2>

00000586 <unstuff0>:
 586:	4e 7f       	andi	r20, 0xFE	; 254
 588:	01 2f       	mov	r16, r17
 58a:	10 b3       	in	r17, 0x10	; 16
 58c:	21 60       	ori	r18, 0x01	; 1
 58e:	28 c0       	rjmp	.+80     	; 0x5e0 <didUnstuff0>

00000590 <unstuff1>:
 590:	10 2f       	mov	r17, r16
 592:	4d 7f       	andi	r20, 0xFD	; 253
 594:	22 60       	ori	r18, 0x02	; 2
 596:	00 00       	nop
 598:	00 b3       	in	r16, 0x10	; 16
 59a:	29 c0       	rjmp	.+82     	; 0x5ee <didUnstuff1>

0000059c <unstuff2>:
 59c:	4b 7f       	andi	r20, 0xFB	; 251
 59e:	24 60       	ori	r18, 0x04	; 4
 5a0:	01 2f       	mov	r16, r17
 5a2:	00 00       	nop
 5a4:	10 b3       	in	r17, 0x10	; 16
 5a6:	2b c0       	rjmp	.+86     	; 0x5fe <didUnstuff2>

000005a8 <unstuff3>:
 5a8:	10 b3       	in	r17, 0x10	; 16
 5aa:	47 7f       	andi	r20, 0xF7	; 247
 5ac:	28 60       	ori	r18, 0x08	; 8
 5ae:	2a c0       	rjmp	.+84     	; 0x604 <didUnstuff3>

000005b0 <unstuff4>:
 5b0:	4f 7e       	andi	r20, 0xEF	; 239
 5b2:	00 b3       	in	r16, 0x10	; 16
 5b4:	20 61       	ori	r18, 0x10	; 16
 5b6:	2c c0       	rjmp	.+88     	; 0x610 <didUnstuff4>

000005b8 <unstuff5>:
 5b8:	4f 7d       	andi	r20, 0xDF	; 223
 5ba:	10 b3       	in	r17, 0x10	; 16
 5bc:	20 62       	ori	r18, 0x20	; 32
 5be:	2f c0       	rjmp	.+94     	; 0x61e <didUnstuff5>

000005c0 <unstuff6>:
 5c0:	4f 7b       	andi	r20, 0xBF	; 191
 5c2:	00 b3       	in	r16, 0x10	; 16
 5c4:	20 64       	ori	r18, 0x40	; 64
 5c6:	32 c0       	rjmp	.+100    	; 0x62c <didUnstuff6>

000005c8 <rxLoop>:
 5c8:	42 27       	eor	r20, r18
 5ca:	00 b3       	in	r16, 0x10	; 16
 5cc:	49 93       	st	Y+, r20
 5ce:	4f ef       	ldi	r20, 0xFF	; 255
 5d0:	00 00       	nop
 5d2:	10 27       	eor	r17, r16
 5d4:	13 fb       	bst	r17, 3
 5d6:	20 f9       	bld	r18, 0
 5d8:	10 b3       	in	r17, 0x10	; 16
 5da:	1c 70       	andi	r17, 0x0C	; 12
 5dc:	c9 f1       	breq	.+114    	; 0x650 <se0>
 5de:	29 7f       	andi	r18, 0xF9	; 249

000005e0 <didUnstuff0>:
 5e0:	91 f2       	breq	.-92     	; 0x586 <unstuff0>
 5e2:	01 27       	eor	r16, r17
 5e4:	03 fb       	bst	r16, 3
 5e6:	21 f9       	bld	r18, 1

000005e8 <rxbit2>:
 5e8:	00 b3       	in	r16, 0x10	; 16
 5ea:	23 7f       	andi	r18, 0xF3	; 243
 5ec:	89 f2       	breq	.-94     	; 0x590 <unstuff1>

000005ee <didUnstuff1>:
 5ee:	31 50       	subi	r19, 0x01	; 1
 5f0:	58 f1       	brcs	.+86     	; 0x648 <overflow>
 5f2:	10 27       	eor	r17, r16
 5f4:	13 fb       	bst	r17, 3
 5f6:	22 f9       	bld	r18, 2
 5f8:	10 b3       	in	r17, 0x10	; 16
 5fa:	27 7e       	andi	r18, 0xE7	; 231
 5fc:	79 f2       	breq	.-98     	; 0x59c <unstuff2>

000005fe <didUnstuff2>:
 5fe:	01 27       	eor	r16, r17
 600:	03 fb       	bst	r16, 3
 602:	23 f9       	bld	r18, 3

00000604 <didUnstuff3>:
 604:	2f 7c       	andi	r18, 0xCF	; 207
 606:	81 f2       	breq	.-96     	; 0x5a8 <unstuff3>
 608:	00 b3       	in	r16, 0x10	; 16
 60a:	10 27       	eor	r17, r16
 60c:	13 fb       	bst	r17, 3
 60e:	24 f9       	bld	r18, 4

00000610 <didUnstuff4>:
 610:	2f 79       	andi	r18, 0x9F	; 159
 612:	71 f2       	breq	.-100    	; 0x5b0 <unstuff4>
 614:	00 c0       	rjmp	.+0      	; 0x616 <didUnstuff4+0x6>
 616:	10 b3       	in	r17, 0x10	; 16
 618:	01 27       	eor	r16, r17
 61a:	03 fb       	bst	r16, 3
 61c:	25 f9       	bld	r18, 5

0000061e <didUnstuff5>:
 61e:	2f 73       	andi	r18, 0x3F	; 63
 620:	59 f2       	breq	.-106    	; 0x5b8 <unstuff5>
 622:	00 c0       	rjmp	.+0      	; 0x624 <didUnstuff5+0x6>
 624:	00 b3       	in	r16, 0x10	; 16
 626:	10 27       	eor	r17, r16
 628:	13 fb       	bst	r17, 3
 62a:	26 f9       	bld	r18, 6

0000062c <didUnstuff6>:
 62c:	22 30       	cpi	r18, 0x02	; 2
 62e:	40 f2       	brcs	.-112    	; 0x5c0 <unstuff6>
 630:	00 c0       	rjmp	.+0      	; 0x632 <didUnstuff6+0x6>
 632:	10 b3       	in	r17, 0x10	; 16
 634:	01 27       	eor	r16, r17
 636:	03 fb       	bst	r16, 3
 638:	27 f9       	bld	r18, 7

0000063a <didUnstuff7>:
 63a:	24 30       	cpi	r18, 0x04	; 4
 63c:	28 f6       	brcc	.-118    	; 0x5c8 <rxLoop>

0000063e <unstuff7>:
 63e:	4f 77       	andi	r20, 0x7F	; 127
 640:	20 68       	ori	r18, 0x80	; 128
 642:	10 b3       	in	r17, 0x10	; 16
 644:	00 00       	nop
 646:	f9 cf       	rjmp	.-14     	; 0x63a <didUnstuff7>

00000648 <overflow>:
 648:	10 e4       	ldi	r17, 0x40	; 64
 64a:	1a bf       	out	0x3a, r17	; 58

0000064c <ignorePacket>:
 64c:	00 27       	eor	r16, r16
 64e:	17 c0       	rjmp	.+46     	; 0x67e <handleSetupOrOut>

00000650 <se0>:
 650:	3b 50       	subi	r19, 0x0B	; 11
 652:	31 95       	neg	r19
 654:	c3 1b       	sub	r28, r19
 656:	d0 40       	sbci	r29, 0x00	; 0
 658:	10 e4       	ldi	r17, 0x40	; 64
 65a:	1a bf       	out	0x3a, r17	; 58
 65c:	08 81       	ld	r16, Y
 65e:	03 3c       	cpi	r16, 0xC3	; 195
 660:	e9 f0       	breq	.+58     	; 0x69c <handleData>
 662:	0b 34       	cpi	r16, 0x4B	; 75
 664:	d9 f0       	breq	.+54     	; 0x69c <handleData>
 666:	20 91 87 01 	lds	r18, 0x0187
 66a:	19 81       	ldd	r17, Y+1	; 0x01
 66c:	11 0f       	add	r17, r17
 66e:	12 13       	cpse	r17, r18
 670:	ed cf       	rjmp	.-38     	; 0x64c <ignorePacket>
 672:	09 36       	cpi	r16, 0x69	; 105
 674:	41 f1       	breq	.+80     	; 0x6c6 <handleIn>
 676:	0d 32       	cpi	r16, 0x2D	; 45
 678:	11 f0       	breq	.+4      	; 0x67e <handleSetupOrOut>
 67a:	01 3e       	cpi	r16, 0xE1	; 225
 67c:	39 f7       	brne	.-50     	; 0x64c <ignorePacket>

0000067e <handleSetupOrOut>:
 67e:	00 93 8e 01 	sts	0x018E, r16

00000682 <doReturn>:
 682:	3f 91       	pop	r19
 684:	4f 91       	pop	r20
 686:	1f 91       	pop	r17
 688:	0f 91       	pop	r16
 68a:	2f 91       	pop	r18
 68c:	df 91       	pop	r29
 68e:	ca b7       	in	r28, 0x3a	; 58
 690:	c6 fd       	sbrc	r28, 6
 692:	51 cf       	rjmp	.-350    	; 0x536 <waitForJ>

00000694 <sofError>:
 694:	cf 91       	pop	r28
 696:	cf bf       	out	0x3f, r28	; 63
 698:	cf 91       	pop	r28
 69a:	18 95       	reti

0000069c <handleData>:
 69c:	20 91 8e 01 	lds	r18, 0x018E
 6a0:	22 23       	and	r18, r18
 6a2:	79 f3       	breq	.-34     	; 0x682 <doReturn>
 6a4:	10 91 8c 01 	lds	r17, 0x018C
 6a8:	11 23       	and	r17, r17
 6aa:	11 f5       	brne	.+68     	; 0x6f0 <sendNakAndReti>
 6ac:	34 30       	cpi	r19, 0x04	; 4
 6ae:	12 f1       	brmi	.+68     	; 0x6f4 <sendAckAndReti>
 6b0:	30 93 8c 01 	sts	0x018C, r19
 6b4:	20 93 88 01 	sts	0x0188, r18
 6b8:	10 91 89 01 	lds	r17, 0x0189
 6bc:	3b e0       	ldi	r19, 0x0B	; 11
 6be:	31 1b       	sub	r19, r17
 6c0:	30 93 89 01 	sts	0x0189, r19
 6c4:	17 c0       	rjmp	.+46     	; 0x6f4 <sendAckAndReti>

000006c6 <handleIn>:
 6c6:	00 91 8c 01 	lds	r16, 0x018C
 6ca:	01 30       	cpi	r16, 0x01	; 1
 6cc:	8c f4       	brge	.+34     	; 0x6f0 <sendNakAndReti>
 6ce:	0a e5       	ldi	r16, 0x5A	; 90
 6d0:	30 91 6b 00 	lds	r19, 0x006B
 6d4:	34 fd       	sbrc	r19, 4
 6d6:	10 c0       	rjmp	.+32     	; 0x6f8 <sendCntAndReti>
 6d8:	00 93 6b 00 	sts	0x006B, r16
 6dc:	cc e7       	ldi	r28, 0x7C	; 124
 6de:	d1 e0       	ldi	r29, 0x01	; 1
 6e0:	0f c0       	rjmp	.+30     	; 0x700 <usbSendAndReti>

000006e2 <stuffN1Delay>:
 6e2:	27 95       	ror	r18
 6e4:	a8 f4       	brcc	.+42     	; 0x710 <doExorN1>
 6e6:	51 50       	subi	r21, 0x01	; 1
 6e8:	a9 f4       	brne	.+42     	; 0x714 <commonN1>
 6ea:	22 0f       	add	r18, r18
 6ec:	00 00       	nop
 6ee:	f9 cf       	rjmp	.-14     	; 0x6e2 <stuffN1Delay>

000006f0 <sendNakAndReti>:
 6f0:	4a e5       	ldi	r20, 0x5A	; 90
 6f2:	03 c0       	rjmp	.+6      	; 0x6fa <usbSendX3>

000006f4 <sendAckAndReti>:
 6f4:	42 ed       	ldi	r20, 0xD2	; 210
 6f6:	01 c0       	rjmp	.+2      	; 0x6fa <usbSendX3>

000006f8 <sendCntAndReti>:
 6f8:	43 2f       	mov	r20, r19

000006fa <usbSendX3>:
 6fa:	c4 e1       	ldi	r28, 0x14	; 20
 6fc:	d0 e0       	ldi	r29, 0x00	; 0
 6fe:	32 e0       	ldi	r19, 0x02	; 2

00000700 <usbSendAndReti>:
 700:	11 b3       	in	r17, 0x11	; 17
 702:	1c 60       	ori	r17, 0x0C	; 12
 704:	93 9a       	sbi	0x12, 3	; 18
 706:	11 bb       	out	0x11, r17	; 17
 708:	02 b3       	in	r16, 0x12	; 18
 70a:	20 e4       	ldi	r18, 0x40	; 64
 70c:	1c e0       	ldi	r17, 0x0C	; 12
 70e:	5f 93       	push	r21

00000710 <doExorN1>:
 710:	01 27       	eor	r16, r17
 712:	56 e0       	ldi	r21, 0x06	; 6

00000714 <commonN1>:
 714:	02 bb       	out	0x12, r16	; 18
 716:	27 95       	ror	r18
 718:	20 f4       	brcc	.+8      	; 0x722 <doExorN2>
 71a:	51 50       	subi	r21, 0x01	; 1
 71c:	21 f4       	brne	.+8      	; 0x726 <commonN2>
 71e:	22 0f       	add	r18, r18
 720:	f9 cf       	rjmp	.-14     	; 0x714 <commonN1>

00000722 <doExorN2>:
 722:	01 27       	eor	r16, r17
 724:	56 e0       	ldi	r21, 0x06	; 6

00000726 <commonN2>:
 726:	00 00       	nop
 728:	3b 5a       	subi	r19, 0xAB	; 171
 72a:	02 bb       	out	0x12, r16	; 18
 72c:	d0 f2       	brcs	.-76     	; 0x6e2 <stuffN1Delay>

0000072e <stuff6Delay>:
 72e:	27 95       	ror	r18
 730:	28 f4       	brcc	.+10     	; 0x73c <doExor6>
 732:	51 50       	subi	r21, 0x01	; 1
 734:	29 f4       	brne	.+10     	; 0x740 <common6>
 736:	22 0f       	add	r18, r18
 738:	00 00       	nop
 73a:	f9 cf       	rjmp	.-14     	; 0x72e <stuff6Delay>

0000073c <doExor6>:
 73c:	01 27       	eor	r16, r17
 73e:	56 e0       	ldi	r21, 0x06	; 6

00000740 <common6>:
 740:	27 95       	ror	r18
 742:	02 bb       	out	0x12, r16	; 18
 744:	20 f4       	brcc	.+8      	; 0x74e <doExor7>
 746:	51 50       	subi	r21, 0x01	; 1
 748:	21 f4       	brne	.+8      	; 0x752 <common7>
 74a:	22 0f       	add	r18, r18
 74c:	f9 cf       	rjmp	.-14     	; 0x740 <common6>

0000074e <doExor7>:
 74e:	01 27       	eor	r16, r17
 750:	56 e0       	ldi	r21, 0x06	; 6

00000752 <common7>:
 752:	29 91       	ld	r18, Y+
 754:	33 23       	and	r19, r19
 756:	02 bb       	out	0x12, r16	; 18
 758:	21 f6       	brne	.-120    	; 0x6e2 <stuffN1Delay>
 75a:	03 7f       	andi	r16, 0xF3	; 243
 75c:	10 91 8d 01 	lds	r17, 0x018D
 760:	11 0f       	add	r17, r17
 762:	c6 51       	subi	r28, 0x16	; 22
 764:	d0 40       	sbci	r29, 0x00	; 0
 766:	02 bb       	out	0x12, r16	; 18
 768:	11 f0       	breq	.+4      	; 0x76e <skipAddrAssign>
 76a:	10 93 87 01 	sts	0x0187, r17

0000076e <skipAddrAssign>:
 76e:	10 e4       	ldi	r17, 0x40	; 64
 770:	1a bf       	out	0x3a, r17	; 58
 772:	08 60       	ori	r16, 0x08	; 8
 774:	11 b3       	in	r17, 0x11	; 17
 776:	13 7f       	andi	r17, 0xF3	; 243
 778:	40 2f       	mov	r20, r16
 77a:	43 7f       	andi	r20, 0xF3	; 243
 77c:	5f 91       	pop	r21
 77e:	00 c0       	rjmp	.+0      	; 0x780 <skipAddrAssign+0x12>
 780:	00 c0       	rjmp	.+0      	; 0x782 <skipAddrAssign+0x14>
 782:	02 bb       	out	0x12, r16	; 18
 784:	11 bb       	out	0x11, r17	; 17
 786:	42 bb       	out	0x12, r20	; 18
 788:	7c cf       	rjmp	.-264    	; 0x682 <doReturn>

0000078a <cpuIoInit>:
 78a:	13 be       	out	0x33, r1	; 51
 78c:	12 be       	out	0x32, r1	; 50
 78e:	85 e0       	ldi	r24, 0x05	; 5
 790:	83 bf       	out	0x33, r24	; 51
 792:	08 95       	ret

00000794 <cpuIoReset>:
 794:	10 92 7b 00 	sts	0x007B, r1
 798:	10 92 7a 00 	sts	0x007A, r1
 79c:	10 92 77 00 	sts	0x0077, r1
 7a0:	10 92 78 00 	sts	0x0078, r1
 7a4:	10 92 79 00 	sts	0x0079, r1
 7a8:	08 95       	ret

000007aa <cpuIoPop>:
 7aa:	dc 01       	movw	r26, r24
 7ac:	20 e0       	ldi	r18, 0x00	; 0
 7ae:	10 c0       	rjmp	.+32     	; 0x7d0 <cpuIoPop+0x26>
 7b0:	e0 91 79 00 	lds	r30, 0x0079
 7b4:	f0 e0       	ldi	r31, 0x00	; 0
 7b6:	ea 55       	subi	r30, 0x5A	; 90
 7b8:	fe 4f       	sbci	r31, 0xFE	; 254
 7ba:	80 81       	ld	r24, Z
 7bc:	8d 93       	st	X+, r24
 7be:	80 91 79 00 	lds	r24, 0x0079
 7c2:	90 e0       	ldi	r25, 0x00	; 0
 7c4:	01 96       	adiw	r24, 0x01	; 1
 7c6:	8f 71       	andi	r24, 0x1F	; 31
 7c8:	90 70       	andi	r25, 0x00	; 0
 7ca:	80 93 79 00 	sts	0x0079, r24
 7ce:	2f 5f       	subi	r18, 0xFF	; 255
 7d0:	26 17       	cp	r18, r22
 7d2:	70 f3       	brcs	.-36     	; 0x7b0 <cpuIoPop+0x6>
 7d4:	08 95       	ret

000007d6 <cpuIoPush>:
 7d6:	cf 93       	push	r28
 7d8:	df 93       	push	r29
 7da:	ec 01       	movw	r28, r24
 7dc:	10 92 7b 00 	sts	0x007B, r1
 7e0:	10 92 7a 00 	sts	0x007A, r1
 7e4:	80 91 77 00 	lds	r24, 0x0077
 7e8:	88 23       	and	r24, r24
 7ea:	11 f0       	breq	.+4      	; 0x7f0 <cpuIoPush+0x1a>
 7ec:	30 e0       	ldi	r19, 0x00	; 0
 7ee:	04 c0       	rjmp	.+8      	; 0x7f8 <cpuIoPush+0x22>
 7f0:	88 81       	ld	r24, Y
 7f2:	80 93 77 00 	sts	0x0077, r24
 7f6:	31 e0       	ldi	r19, 0x01	; 1
 7f8:	80 91 77 00 	lds	r24, 0x0077
 7fc:	88 23       	and	r24, r24
 7fe:	b9 f4       	brne	.+46     	; 0x82e <cpuIoPush+0x58>
 800:	19 c0       	rjmp	.+50     	; 0x834 <cpuIoPush+0x5e>
 802:	80 91 78 00 	lds	r24, 0x0078
 806:	90 e0       	ldi	r25, 0x00	; 0
 808:	dc 01       	movw	r26, r24
 80a:	aa 55       	subi	r26, 0x5A	; 90
 80c:	be 4f       	sbci	r27, 0xFE	; 254
 80e:	fe 01       	movw	r30, r28
 810:	e3 0f       	add	r30, r19
 812:	f1 1d       	adc	r31, r1
 814:	20 81       	ld	r18, Z
 816:	2c 93       	st	X, r18
 818:	01 96       	adiw	r24, 0x01	; 1
 81a:	8f 71       	andi	r24, 0x1F	; 31
 81c:	90 70       	andi	r25, 0x00	; 0
 81e:	80 93 78 00 	sts	0x0078, r24
 822:	80 91 77 00 	lds	r24, 0x0077
 826:	81 50       	subi	r24, 0x01	; 1
 828:	80 93 77 00 	sts	0x0077, r24
 82c:	3f 5f       	subi	r19, 0xFF	; 255
 82e:	36 17       	cp	r19, r22
 830:	40 f3       	brcs	.-48     	; 0x802 <cpuIoPush+0x2c>
 832:	0f c0       	rjmp	.+30     	; 0x852 <cpuIoPush+0x7c>
 834:	64 dc       	rcall	.-1848   	; 0xfe <blinkLed1>
 836:	10 92 7b 00 	sts	0x007B, r1
 83a:	10 92 7a 00 	sts	0x007A, r1
 83e:	10 92 77 00 	sts	0x0077, r1
 842:	10 92 78 00 	sts	0x0078, r1
 846:	10 92 79 00 	sts	0x0079, r1
 84a:	89 81       	ldd	r24, Y+1	; 0x01
 84c:	66 ea       	ldi	r22, 0xA6	; 166
 84e:	71 e0       	ldi	r23, 0x01	; 1
 850:	60 dc       	rcall	.-1856   	; 0x112 <invoke>
 852:	df 91       	pop	r29
 854:	cf 91       	pop	r28
 856:	08 95       	ret

00000858 <cpuIoPoll>:
 858:	82 b7       	in	r24, 0x32	; 50
 85a:	84 36       	cpi	r24, 0x64	; 100
 85c:	d8 f0       	brcs	.+54     	; 0x894 <cpuIoPoll+0x3c>
 85e:	80 91 7a 00 	lds	r24, 0x007A
 862:	90 91 7b 00 	lds	r25, 0x007B
 866:	01 96       	adiw	r24, 0x01	; 1
 868:	90 93 7b 00 	sts	0x007B, r25
 86c:	80 93 7a 00 	sts	0x007A, r24
 870:	89 3c       	cpi	r24, 0xC9	; 201
 872:	91 05       	cpc	r25, r1
 874:	58 f0       	brcs	.+22     	; 0x88c <cpuIoPoll+0x34>
 876:	10 92 7b 00 	sts	0x007B, r1
 87a:	10 92 7a 00 	sts	0x007A, r1
 87e:	10 92 77 00 	sts	0x0077, r1
 882:	10 92 78 00 	sts	0x0078, r1
 886:	10 92 79 00 	sts	0x0079, r1
 88a:	31 dc       	rcall	.-1950   	; 0xee <blinkLed0>
 88c:	13 be       	out	0x33, r1	; 51
 88e:	12 be       	out	0x32, r1	; 50
 890:	85 e0       	ldi	r24, 0x05	; 5
 892:	83 bf       	out	0x33, r24	; 51
 894:	08 95       	ret

00000896 <_exit>:
 896:	f8 94       	cli

00000898 <__stop_program>:
 898:	ff cf       	rjmp	.-2      	; 0x898 <__stop_program>
